; Function Attrs: nounwind uwtable
define i32 @pmix20_bfrop_pack_value(ptr noundef %0, ptr noundef %1, ptr noundef %2, i32 noundef %3, i16 noundef zeroext %4) local_unnamed_addr #0 {
  %6 = icmp sgt i32 %3, 0
  br i1 %6, label %.lr.ph.preheader, label %._crit_edge

.lr.ph.preheader:                                 ; preds = %5
  %wide.trip.count = zext nneg i32 %3 to i64
  br label %.lr.ph

7:                                                ; preds = %11
  %indvars.iv.next = add nuw nsw i64 %indvars.iv, 1
  %exitcond.not = icmp eq i64 %indvars.iv.next, %wide.trip.count
  br i1 %exitcond.not, label %._crit_edge, label %.lr.ph, !llvm.loop !60

.lr.ph:                                           ; preds = %.lr.ph.preheader, %7
  %indvars.iv = phi i64 [ 0, %.lr.ph.preheader ], [ %indvars.iv.next, %7 ]
  %8 = getelementptr inbounds nuw %struct.pmix_value, ptr %2, i64 %indvars.iv
  %9 = load i16, ptr %8, align 8, !tbaa !61
  %10 = tail call i32 @pmix20_bfrop_store_data_type(ptr noundef %0, ptr noundef %1, i16 noundef zeroext %9) #8
  %.not = icmp eq i32 %10, 0
  br i1 %.not, label %11, label %._crit_edge

11:                                               ; preds = %.lr.ph
  %12 = tail call fastcc i32 @pack_val(ptr noundef %0, ptr noundef %1, ptr noundef nonnull %8)
  %.not17 = icmp eq i32 %12, 0
  br i1 %.not17, label %7, label %._crit_edge

._crit_edge:                                      ; preds = %.lr.ph, %11, %7, %5
  %.014 = phi i32 [ 0, %5 ], [ 0, %7 ], [ %12, %11 ], [ %10, %.lr.ph ]
  ret i32 %.014
}